target datalayout = "e-m:e-p270:32:32-p271:32:32-p272:64:64-i64:64-i128:128-f80:128-n8:16:32:64-S128"
target triple = "x86_64-pc-linux-gnu"

%struct._value_string = type { i32, ptr }
%struct.ssh_bignum = type { ptr, i32 }
%struct._packet_info = type { ptr, ptr, i32, i32, %struct.nstime_t, %struct.nstime_t, %struct.nstime_t, i32, ptr, ptr, ptr, ptr, %struct._address, %struct._address, %struct._address, %struct._address, %struct._address, %struct._address, i32, ptr, i32, %struct.anon, i32, i32, i32, i32, ptr, i32, ptr, ptr, i16, i16, i32, i32, i16, i32, i32, ptr, ptr, ptr, i8, i8, i16, i16, i16, i32, i16, i16, ptr, ptr, ptr, ptr, ptr, i32 }
%struct.nstime_t = type { i64, i32 }
%struct._address = type { i32, i32, ptr, ptr }
%struct.anon = type { i8, [3 x i8] }
%struct.ssh_flow_data = type { i32, ptr, ptr, [2 x %struct.ssh_peer_data], ptr, i32, ptr, ptr, ptr, ptr, ptr, ptr, ptr, ptr, ptr, ptr, ptr, ptr, ptr, ptr, i32, i32, [6 x %struct.ssh_bignum] }
%struct.ssh_peer_data = type { i32, i32, i32, i32, i32, i32, ptr, [2 x ptr], ptr, i32, [2 x ptr], ptr, [2 x ptr], ptr, i32, i32, i32, ptr, ptr, i32, i32, i32, i32, i32, i32, i32, i32, i32, i32, i32, ptr, [12 x i8], [48 x i8], i32, ptr, ptr, ptr }

@hf_ssh2_msg_code = internal global i32 0, align 4
@hf_ssh2_ext_ping_msg_code = internal global i32 0, align 4
@ssh2_ext_ping_msg_vals = internal constant [3 x %struct._value_string] [%struct._value_string { i32 192, ptr @.str.396 }, %struct._value_string { i32 193, ptr @.str.397 }, %struct._value_string zeroinitializer], align 16
@hf_ssh_ping_data_length = internal global i32 0, align 4
@hf_ssh_ping_data = internal global i32 0, align 4
@hf_ssh_pong_data_length = internal global i32 0, align 4
@hf_ssh_pong_data = internal global i32 0, align 4
@.str.411 = private unnamed_addr constant [13 x i8] c"Unknown (%u)\00", align 1

; Function Attrs: nounwind uwtable
define internal i32 @ssh_dissect_local_extension(ptr noundef %0, ptr noundef %1, i32 noundef %2, ptr noundef %3, ptr noundef %4, i32 noundef %5) #0 {
  %7 = alloca ptr, align 8
  %8 = alloca ptr, align 8
  %9 = alloca i32, align 4
  %10 = alloca ptr, align 8
  %11 = alloca ptr, align 8
  %12 = alloca i32, align 4
  %13 = alloca i32, align 4
  store ptr %0, ptr %7, align 8
  store ptr %1, ptr %8, align 8
  store i32 %2, ptr %9, align 4
  store ptr %3, ptr %10, align 8
  store ptr %4, ptr %11, align 8
  store i32 %5, ptr %12, align 4
  %14 = load ptr, ptr %10, align 8
  %15 = getelementptr inbounds %struct.ssh_peer_data, ptr %14, i32 0, i32 36
  %16 = load ptr, ptr %15, align 8
  %17 = getelementptr inbounds %struct.ssh_flow_data, ptr %16, i32 0, i32 21
  %18 = load i32, ptr %17, align 4
  %19 = icmp ne i32 %18, 0
  br i1 %19, label %20, label %86

20:                                               ; preds = %6
  %21 = load i32, ptr %12, align 4
  %22 = icmp uge i32 %21, 192
  br i1 %22, label %23, label %86

23:                                               ; preds = %20
  %24 = load i32, ptr %12, align 4
  %25 = icmp ule i32 %24, 193
  br i1 %25, label %26, label %86

26:                                               ; preds = %23
  %27 = load ptr, ptr %8, align 8
  %28 = getelementptr inbounds %struct._packet_info, ptr %27, i32 0, i32 1
  %29 = load ptr, ptr %28, align 8
  %30 = load i32, ptr %12, align 4
  %31 = call ptr @val_to_str(i32 noundef %30, ptr noundef @ssh2_ext_ping_msg_vals, ptr noundef @.str.411)
  call void @col_append_sep_str(ptr noundef %29, i32 noundef 25, ptr noundef null, ptr noundef %31)
  %32 = load ptr, ptr %11, align 8
  %33 = load i32, ptr @hf_ssh2_ext_ping_msg_code, align 4
  %34 = load ptr, ptr %7, align 8
  %35 = load i32, ptr %9, align 4
  %36 = call ptr @proto_tree_add_item(ptr noundef %32, i32 noundef %33, ptr noundef %34, i32 noundef %35, i32 noundef 1, i32 noundef 0)
  %37 = load i32, ptr %9, align 4
  %38 = add i32 %37, 1
  store i32 %38, ptr %9, align 4
  %39 = load i32, ptr %12, align 4
  %40 = icmp eq i32 %39, 192
  br i1 %40, label %41, label %61

41:                                               ; preds = %26
  %42 = load ptr, ptr %7, align 8
  %43 = load i32, ptr %9, align 4
  %44 = call i32 @tvb_get_ntohl(ptr noundef %42, i32 noundef %43)
  store i32 %44, ptr %13, align 4
  %45 = load ptr, ptr %11, align 8
  %46 = load i32, ptr @hf_ssh_ping_data_length, align 4
  %47 = load ptr, ptr %7, align 8
  %48 = load i32, ptr %9, align 4
  %49 = call ptr @proto_tree_add_item(ptr noundef %45, i32 noundef %46, ptr noundef %47, i32 noundef %48, i32 noundef 4, i32 noundef 0)
  %50 = load i32, ptr %9, align 4
  %51 = add i32 %50, 4
  store i32 %51, ptr %9, align 4
  %52 = load ptr, ptr %11, align 8
  %53 = load i32, ptr @hf_ssh_ping_data, align 4
  %54 = load ptr, ptr %7, align 8
  %55 = load i32, ptr %9, align 4
  %56 = load i32, ptr %13, align 4
  %57 = call ptr @proto_tree_add_item(ptr noundef %52, i32 noundef %53, ptr noundef %54, i32 noundef %55, i32 noundef %56, i32 noundef 0)
  %58 = load i32, ptr %13, align 4
  %59 = load i32, ptr %9, align 4
  %60 = add i32 %59, %58
  store i32 %60, ptr %9, align 4
  br label %85

61:                                               ; preds = %26
  %62 = load i32, ptr %12, align 4
  %63 = icmp eq i32 %62, 193
  br i1 %63, label %64, label %84

64:                                               ; preds = %61
  %65 = load ptr, ptr %7, align 8
  %66 = load i32, ptr %9, align 4
  %67 = call i32 @tvb_get_ntohl(ptr noundef %65, i32 noundef %66)
  store i32 %67, ptr %13, align 4
  %68 = load ptr, ptr %11, align 8
  %69 = load i32, ptr @hf_ssh_pong_data_length, align 4
  %70 = load ptr, ptr %7, align 8
  %71 = load i32, ptr %9, align 4
  %72 = call ptr @proto_tree_add_item(ptr noundef %68, i32 noundef %69, ptr noundef %70, i32 noundef %71, i32 noundef 4, i32 noundef 0)
  %73 = load i32, ptr %9, align 4
  %74 = add i32 %73, 4
  store i32 %74, ptr %9, align 4
  %75 = load ptr, ptr %11, align 8
  %76 = load i32, ptr @hf_ssh_pong_data, align 4
  %77 = load ptr, ptr %7, align 8
  %78 = load i32, ptr %9, align 4
  %79 = load i32, ptr %13, align 4
  %80 = call ptr @proto_tree_add_item(ptr noundef %75, i32 noundef %76, ptr noundef %77, i32 noundef %78, i32 noundef %79, i32 noundef 0)
  %81 = load i32, ptr %13, align 4
  %82 = load i32, ptr %9, align 4
  %83 = add i32 %82, %81
  store i32 %83, ptr %9, align 4
  br label %84

84:                                               ; preds = %64, %61
  br label %85

85:                                               ; preds = %84, %41
  br label %99

86:                                               ; preds = %23, %20, %6
  %87 = load ptr, ptr %8, align 8
  %88 = getelementptr inbounds %struct._packet_info, ptr %87, i32 0, i32 1
  %89 = load ptr, ptr %88, align 8
  %90 = load i32, ptr %12, align 4
  %91 = call ptr @val_to_str(i32 noundef %90, ptr noundef @ssh2_msg_vals, ptr noundef @.str.411)
  call void @col_append_sep_str(ptr noundef %89, i32 noundef 25, ptr noundef null, ptr noundef %91)
  %92 = load ptr, ptr %11, align 8
  %93 = load i32, ptr @hf_ssh2_msg_code, align 4
  %94 = load ptr, ptr %7, align 8
  %95 = load i32, ptr %9, align 4
  %96 = call ptr @proto_tree_add_item(ptr noundef %92, i32 noundef %93, ptr noundef %94, i32 noundef %95, i32 noundef 1, i32 noundef 0)
  %97 = load i32, ptr %9, align 4
  %98 = add i32 %97, 1
  store i32 %98, ptr %9, align 4
  br label %99

99:                                               ; preds = %86, %85
  %100 = load i32, ptr %9, align 4
  ret i32 %100
}