; Function Attrs: nounwind uwtable
define internal fastcc i32 @ssh_dissect_local_extension(ptr noundef %0, ptr noundef readonly captures(none) %1, i32 %.280.val.732.val, ptr noundef %2, i32 noundef range(i32 192, 256) %3) unnamed_addr #0 {
  %5 = icmp ne i32 %.280.val.732.val, 0
  %6 = icmp samesign ult i32 %3, 194
  %or.cond3 = select i1 %5, i1 %6, i1 false
  %7 = getelementptr inbounds nuw i8, ptr %1, i64 8
  %8 = load ptr, ptr %7, align 8
  br i1 %or.cond3, label %9, label %26

9:                                                ; preds = %4
  %10 = tail call ptr @val_to_str(i32 noundef %3, ptr noundef nonnull @ssh2_ext_ping_msg_vals, ptr noundef nonnull @.str.411) #21
  tail call void @col_append_sep_str(ptr noundef %8, i32 noundef 25, ptr noundef null, ptr noundef %10) #21
  %11 = load i32, ptr @hf_ssh2_ext_ping_msg_code, align 4
  %12 = tail call ptr @proto_tree_add_item(ptr noundef %2, i32 noundef %11, ptr noundef %0, i32 noundef 5, i32 noundef 1, i32 noundef 0) #21
  %13 = icmp eq i32 %3, 192
  %14 = tail call i32 @tvb_get_ntohl(ptr noundef %0, i32 noundef 6) #21
  %15 = add i32 %14, 10
  br i1 %13, label %16, label %21

16:                                               ; preds = %9
  %17 = load i32, ptr @hf_ssh_ping_data_length, align 4
  %18 = tail call ptr @proto_tree_add_item(ptr noundef %2, i32 noundef %17, ptr noundef %0, i32 noundef 6, i32 noundef 4, i32 noundef 0) #21
  %19 = load i32, ptr @hf_ssh_ping_data, align 4
  %20 = tail call ptr @proto_tree_add_item(ptr noundef %2, i32 noundef %19, ptr noundef %0, i32 noundef 10, i32 noundef %14, i32 noundef 0) #21
  br label %30

21:                                               ; preds = %9
  %22 = load i32, ptr @hf_ssh_pong_data_length, align 4
  %23 = tail call ptr @proto_tree_add_item(ptr noundef %2, i32 noundef %22, ptr noundef %0, i32 noundef 6, i32 noundef 4, i32 noundef 0) #21
  %24 = load i32, ptr @hf_ssh_pong_data, align 4
  %25 = tail call ptr @proto_tree_add_item(ptr noundef %2, i32 noundef %24, ptr noundef %0, i32 noundef 10, i32 noundef %14, i32 noundef 0) #21
  br label %30

26:                                               ; preds = %4
  %27 = tail call ptr @val_to_str(i32 noundef %3, ptr noundef nonnull @ssh2_msg_vals, ptr noundef nonnull @.str.411) #21
  tail call void @col_append_sep_str(ptr noundef %8, i32 noundef 25, ptr noundef null, ptr noundef %27) #21
  %28 = load i32, ptr @hf_ssh2_msg_code, align 4
  %29 = tail call ptr @proto_tree_add_item(ptr noundef %2, i32 noundef %28, ptr noundef %0, i32 noundef 5, i32 noundef 1, i32 noundef 0) #21
  br label %30

30:                                               ; preds = %16, %21, %26
  %.0 = phi i32 [ %15, %16 ], [ %15, %21 ], [ 6, %26 ]
  ret i32 %.0
}